target datalayout = "e-m:e-p270:32:32-p271:32:32-p272:64:64-i64:64-i128:128-f80:128-n8:16:32:64-S128"
target triple = "x86_64-pc-linux-gnu"

%struct.AVPacket = type { ptr, i64, i64, ptr, i32, i32, i32, ptr, i32, i64, i64, ptr, ptr, %struct.AVRational }
%struct.AVRational = type { i32, i32 }
%struct.AVCodecContext = type { ptr, i32, i32, ptr, i32, i32, ptr, ptr, ptr, i64, i32, i32, ptr, i32, %struct.AVRational, %struct.AVRational, %struct.AVRational, i32, i32, i32, i32, i32, %struct.AVRational, i32, i32, i32, i32, i32, i32, i32, i32, i32, i32, i32, ptr, ptr, i32, float, float, float, float, float, float, float, float, float, i32, i32, i32, i32, i32, i32, i32, i32, i32, i32, i32, i32, ptr, ptr, ptr, i32, i32, i32, i32, i32, i32, i32, i32, i32, i32, %struct.AVChannelLayout, i32, i32, i32, i32, i32, i32, i32, i32, ptr, i32, i32, i32, float, float, i32, i32, i32, i32, i32, ptr, i64, i64, float, float, i32, i32, ptr, ptr, i32, i32, i32, i32, i32, ptr, ptr, ptr, ptr, i32, i32, [8 x i64], i32, i32, i32, i32, i32, i32, i32, ptr, ptr, i32, i32, i32, i32, i32, i32, i32, i32, i32, i32, ptr, ptr, i32, i32, ptr, ptr, ptr, ptr, i32, i32, i64, i32, i32, i64, ptr, i64, ptr, i32, ptr, i32 }
%struct.AVChannelLayout = type { i32, i32, %union.anon, ptr }
%union.anon = type { i64 }
%struct.AVFrame = type { [8 x ptr], [8 x i32], ptr, i32, i32, i32, i32, i32, %struct.AVRational, i64, i64, %struct.AVRational, i32, ptr, i32, i32, [8 x ptr], ptr, i32, ptr, i32, i32, i32, i32, i32, i32, i32, i64, ptr, i32, ptr, ptr, i64, i64, i64, i64, ptr, %struct.AVChannelLayout, i64 }

; Function Attrs: nounwind uwtable
define i32 @ff_encode_reordered_opaque(ptr noundef %0, ptr noundef %1, ptr noundef %2) #0 {
  %4 = alloca i32, align 4
  %5 = alloca ptr, align 8
  %6 = alloca ptr, align 8
  %7 = alloca ptr, align 8
  %8 = alloca i32, align 4
  %9 = alloca i32, align 4
  store ptr %0, ptr %5, align 8, !tbaa !4
  store ptr %1, ptr %6, align 8, !tbaa !9
  store ptr %2, ptr %7, align 8, !tbaa !58
  %10 = load ptr, ptr %5, align 8, !tbaa !4
  %11 = getelementptr inbounds nuw %struct.AVCodecContext, ptr %10, i32 0, i32 10
  %12 = load i32, ptr %11, align 8, !tbaa !63
  %13 = and i32 %12, 128
  %14 = icmp ne i32 %13, 0
  br i1 %14, label %15, label %35

15:                                               ; preds = %3
  call void @llvm.lifetime.start.p0(i64 4, ptr %8) #10
  %16 = load ptr, ptr %6, align 8, !tbaa !9
  %17 = getelementptr inbounds nuw %struct.AVPacket, ptr %16, i32 0, i32 12
  %18 = load ptr, ptr %7, align 8, !tbaa !58
  %19 = getelementptr inbounds nuw %struct.AVFrame, ptr %18, i32 0, i32 31
  %20 = load ptr, ptr %19, align 8, !tbaa !64
  %21 = call i32 @av_buffer_replace(ptr noundef %17, ptr noundef %20)
  store i32 %21, ptr %8, align 4, !tbaa !41
  %22 = load i32, ptr %8, align 4, !tbaa !41
  %23 = icmp slt i32 %22, 0
  br i1 %23, label %24, label %26

24:                                               ; preds = %15
  %25 = load i32, ptr %8, align 4, !tbaa !41
  store i32 %25, ptr %4, align 4
  store i32 1, ptr %9, align 4
  br label %32

26:                                               ; preds = %15
  %27 = load ptr, ptr %7, align 8, !tbaa !58
  %28 = getelementptr inbounds nuw %struct.AVFrame, ptr %27, i32 0, i32 13
  %29 = load ptr, ptr %28, align 8, !tbaa !69
  %30 = load ptr, ptr %6, align 8, !tbaa !9
  %31 = getelementptr inbounds nuw %struct.AVPacket, ptr %30, i32 0, i32 11
  store ptr %29, ptr %31, align 8, !tbaa !70
  store i32 0, ptr %9, align 4
  br label %32

32:                                               ; preds = %26, %24
  call void @llvm.lifetime.end.p0(i64 4, ptr %8) #10
  %33 = load i32, ptr %9, align 4
  switch i32 %33, label %38 [
    i32 0, label %34
    i32 1, label %36
  ]

34:                                               ; preds = %32
  br label %35

35:                                               ; preds = %34, %3
  store i32 0, ptr %4, align 4
  br label %36

36:                                               ; preds = %35, %32
  %37 = load i32, ptr %4, align 4
  ret i32 %37

38:                                               ; preds = %32
  unreachable
}