; Function Attrs: nounwind uwtable
define range(i32 -2147483648, 1) i32 @ff_encode_reordered_opaque(ptr noundef readonly captures(none) %0, ptr noundef %1, ptr noundef readonly captures(none) %2) local_unnamed_addr #0 {
  %4 = getelementptr inbounds nuw i8, ptr %0, i64 64
  %5 = load i32, ptr %4, align 8, !tbaa !52
  %6 = and i32 %5, 128
  %.not = icmp eq i32 %6, 0
  br i1 %.not, label %16, label %7

7:                                                ; preds = %3
  %8 = getelementptr inbounds nuw i8, ptr %1, i64 88
  %9 = getelementptr inbounds nuw i8, ptr %2, i64 336
  %10 = load ptr, ptr %9, align 8, !tbaa !53
  %11 = tail call i32 @av_buffer_replace(ptr noundef nonnull %8, ptr noundef %10) #8
  %12 = icmp slt i32 %11, 0
  br i1 %12, label %16, label %.thread

.thread:                                          ; preds = %7
  %13 = getelementptr inbounds nuw i8, ptr %2, i64 168
  %14 = load ptr, ptr %13, align 8, !tbaa !58
  %15 = getelementptr inbounds nuw i8, ptr %1, i64 80
  store ptr %14, ptr %15, align 8, !tbaa !59
  br label %16

16:                                               ; preds = %3, %.thread, %7
  %.1 = phi i32 [ %11, %7 ], [ 0, %.thread ], [ 0, %3 ]
  ret i32 %.1
}